target datalayout = "e-m:e-p270:32:32-p271:32:32-p272:64:64-i64:64-i128:128-f80:128-n8:16:32:64-S128"
target triple = "x86_64-pc-linux-gnu"

%struct.t_atoms = type { i32, ptr, ptr, ptr, ptr, i32, ptr, ptr, i8, i8, i8, i8, i8 }

@.str.5 = private unnamed_addr constant [9 x i8] c"at->atom\00", align 1
@.str.6 = private unnamed_addr constant [124 x i8] c"generated/home/dtcxzyw/WorkSpace/Projects/compilers/llvm-opt-benchmark/bench/gromacs/gromacs/src/gromacs/topology/atoms.cpp\00", align 1
@.str.7 = private unnamed_addr constant [12 x i8] c"at->resinfo\00", align 1
@.str.8 = private unnamed_addr constant [13 x i8] c"at->atomname\00", align 1
@.str.9 = private unnamed_addr constant [13 x i8] c"at->atomtype\00", align 1
@.str.10 = private unnamed_addr constant [14 x i8] c"at->atomtypeB\00", align 1
@.str.11 = private unnamed_addr constant [12 x i8] c"at->pdbinfo\00", align 1

; Function Attrs: mustprogress nounwind uwtable
define void @_Z9init_atomP7t_atoms(ptr noundef %0) #1 {
  %2 = alloca ptr, align 8
  store ptr %0, ptr %2, align 8, !tbaa !93
  %3 = load ptr, ptr %2, align 8, !tbaa !93
  %4 = getelementptr inbounds nuw %struct.t_atoms, ptr %3, i32 0, i32 0
  store i32 0, ptr %4, align 8, !tbaa !95
  %5 = load ptr, ptr %2, align 8, !tbaa !93
  %6 = getelementptr inbounds nuw %struct.t_atoms, ptr %5, i32 0, i32 5
  store i32 0, ptr %6, align 8, !tbaa !103
  %7 = load ptr, ptr %2, align 8, !tbaa !93
  %8 = getelementptr inbounds nuw %struct.t_atoms, ptr %7, i32 0, i32 1
  store ptr null, ptr %8, align 8, !tbaa !104
  %9 = load ptr, ptr %2, align 8, !tbaa !93
  %10 = getelementptr inbounds nuw %struct.t_atoms, ptr %9, i32 0, i32 6
  store ptr null, ptr %10, align 8, !tbaa !105
  %11 = load ptr, ptr %2, align 8, !tbaa !93
  %12 = getelementptr inbounds nuw %struct.t_atoms, ptr %11, i32 0, i32 2
  store ptr null, ptr %12, align 8, !tbaa !106
  %13 = load ptr, ptr %2, align 8, !tbaa !93
  %14 = getelementptr inbounds nuw %struct.t_atoms, ptr %13, i32 0, i32 3
  store ptr null, ptr %14, align 8, !tbaa !107
  %15 = load ptr, ptr %2, align 8, !tbaa !93
  %16 = getelementptr inbounds nuw %struct.t_atoms, ptr %15, i32 0, i32 4
  store ptr null, ptr %16, align 8, !tbaa !108
  %17 = load ptr, ptr %2, align 8, !tbaa !93
  %18 = getelementptr inbounds nuw %struct.t_atoms, ptr %17, i32 0, i32 7
  store ptr null, ptr %18, align 8, !tbaa !109
  %19 = load ptr, ptr %2, align 8, !tbaa !93
  %20 = getelementptr inbounds nuw %struct.t_atoms, ptr %19, i32 0, i32 8
  store i8 0, ptr %20, align 8, !tbaa !110
  %21 = load ptr, ptr %2, align 8, !tbaa !93
  %22 = getelementptr inbounds nuw %struct.t_atoms, ptr %21, i32 0, i32 9
  store i8 0, ptr %22, align 1, !tbaa !111
  %23 = load ptr, ptr %2, align 8, !tbaa !93
  %24 = getelementptr inbounds nuw %struct.t_atoms, ptr %23, i32 0, i32 10
  store i8 0, ptr %24, align 2, !tbaa !112
  %25 = load ptr, ptr %2, align 8, !tbaa !93
  %26 = getelementptr inbounds nuw %struct.t_atoms, ptr %25, i32 0, i32 11
  store i8 0, ptr %26, align 1, !tbaa !113
  %27 = load ptr, ptr %2, align 8, !tbaa !93
  %28 = getelementptr inbounds nuw %struct.t_atoms, ptr %27, i32 0, i32 12
  store i8 0, ptr %28, align 4, !tbaa !114
  ret void
}

; Function Attrs: inlinehint mustprogress uwtable
define internal void @_ZL14gmx_sfree_implI9t_pdbinfoEvPKcS2_iPT_(ptr noundef %0, ptr noundef %1, i32 noundef %2, ptr noundef %3) #10 {
  %5 = alloca ptr, align 8
  %6 = alloca ptr, align 8
  %7 = alloca i32, align 4
  %8 = alloca ptr, align 8
  store ptr %0, ptr %5, align 8, !tbaa !8
  store ptr %1, ptr %6, align 8, !tbaa !8
  store i32 %2, ptr %7, align 4, !tbaa !60
  store ptr %3, ptr %8, align 8, !tbaa !118
  %9 = load ptr, ptr %5, align 8, !tbaa !8
  %10 = load ptr, ptr %6, align 8, !tbaa !8
  %11 = load i32, ptr %7, align 4, !tbaa !60
  %12 = load ptr, ptr %8, align 8, !tbaa !118
  call void @_Z9save_freePKcS0_iPv(ptr noundef %9, ptr noundef %10, i32 noundef %11, ptr noundef %12)
  ret void
}

; Function Attrs: inlinehint mustprogress uwtable
define internal void @_ZL14gmx_sfree_implIPPcEvPKcS3_iPT_(ptr noundef %0, ptr noundef %1, i32 noundef %2, ptr noundef %3) #10 {
  %5 = alloca ptr, align 8
  %6 = alloca ptr, align 8
  %7 = alloca i32, align 4
  %8 = alloca ptr, align 8
  store ptr %0, ptr %5, align 8, !tbaa !8
  store ptr %1, ptr %6, align 8, !tbaa !8
  store i32 %2, ptr %7, align 4, !tbaa !60
  store ptr %3, ptr %8, align 8, !tbaa !117
  %9 = load ptr, ptr %5, align 8, !tbaa !8
  %10 = load ptr, ptr %6, align 8, !tbaa !8
  %11 = load i32, ptr %7, align 4, !tbaa !60
  %12 = load ptr, ptr %8, align 8, !tbaa !117
  call void @_Z9save_freePKcS0_iPv(ptr noundef %9, ptr noundef %10, i32 noundef %11, ptr noundef %12)
  ret void
}

; Function Attrs: inlinehint mustprogress uwtable
define internal void @_ZL14gmx_sfree_implI9t_resinfoEvPKcS2_iPT_(ptr noundef %0, ptr noundef %1, i32 noundef %2, ptr noundef %3) #10 {
  %5 = alloca ptr, align 8
  %6 = alloca ptr, align 8
  %7 = alloca i32, align 4
  %8 = alloca ptr, align 8
  store ptr %0, ptr %5, align 8, !tbaa !8
  store ptr %1, ptr %6, align 8, !tbaa !8
  store i32 %2, ptr %7, align 4, !tbaa !60
  store ptr %3, ptr %8, align 8, !tbaa !116
  %9 = load ptr, ptr %5, align 8, !tbaa !8
  %10 = load ptr, ptr %6, align 8, !tbaa !8
  %11 = load i32, ptr %7, align 4, !tbaa !60
  %12 = load ptr, ptr %8, align 8, !tbaa !116
  call void @_Z9save_freePKcS0_iPv(ptr noundef %9, ptr noundef %10, i32 noundef %11, ptr noundef %12)
  ret void
}

; Function Attrs: inlinehint mustprogress uwtable
define internal void @_ZL14gmx_sfree_implI6t_atomEvPKcS2_iPT_(ptr noundef %0, ptr noundef %1, i32 noundef %2, ptr noundef %3) #10 {
  %5 = alloca ptr, align 8
  %6 = alloca ptr, align 8
  %7 = alloca i32, align 4
  %8 = alloca ptr, align 8
  store ptr %0, ptr %5, align 8, !tbaa !8
  store ptr %1, ptr %6, align 8, !tbaa !8
  store i32 %2, ptr %7, align 4, !tbaa !60
  store ptr %3, ptr %8, align 8, !tbaa !115
  %9 = load ptr, ptr %5, align 8, !tbaa !8
  %10 = load ptr, ptr %6, align 8, !tbaa !8
  %11 = load i32, ptr %7, align 4, !tbaa !60
  %12 = load ptr, ptr %8, align 8, !tbaa !115
  call void @_Z9save_freePKcS0_iPv(ptr noundef %9, ptr noundef %10, i32 noundef %11, ptr noundef %12)
  ret void
}

; Function Attrs: mustprogress uwtable
define void @_Z9done_atomP7t_atoms(ptr noundef %0) #0 {
  %2 = alloca ptr, align 8
  store ptr %0, ptr %2, align 8, !tbaa !93
  %3 = load ptr, ptr %2, align 8, !tbaa !93
  %4 = getelementptr inbounds nuw %struct.t_atoms, ptr %3, i32 0, i32 1
  %5 = load ptr, ptr %4, align 8, !tbaa !104
  call void @_ZL14gmx_sfree_implI6t_atomEvPKcS2_iPT_(ptr noundef @.str.5, ptr noundef @.str.6, i32 noundef 238, ptr noundef %5)
  %6 = load ptr, ptr %2, align 8, !tbaa !93
  %7 = getelementptr inbounds nuw %struct.t_atoms, ptr %6, i32 0, i32 6
  %8 = load ptr, ptr %7, align 8, !tbaa !105
  call void @_ZL14gmx_sfree_implI9t_resinfoEvPKcS2_iPT_(ptr noundef @.str.7, ptr noundef @.str.6, i32 noundef 239, ptr noundef %8)
  %9 = load ptr, ptr %2, align 8, !tbaa !93
  %10 = getelementptr inbounds nuw %struct.t_atoms, ptr %9, i32 0, i32 2
  %11 = load ptr, ptr %10, align 8, !tbaa !106
  call void @_ZL14gmx_sfree_implIPPcEvPKcS3_iPT_(ptr noundef @.str.8, ptr noundef @.str.6, i32 noundef 240, ptr noundef %11)
  %12 = load ptr, ptr %2, align 8, !tbaa !93
  %13 = getelementptr inbounds nuw %struct.t_atoms, ptr %12, i32 0, i32 3
  %14 = load ptr, ptr %13, align 8, !tbaa !107
  call void @_ZL14gmx_sfree_implIPPcEvPKcS3_iPT_(ptr noundef @.str.9, ptr noundef @.str.6, i32 noundef 241, ptr noundef %14)
  %15 = load ptr, ptr %2, align 8, !tbaa !93
  %16 = getelementptr inbounds nuw %struct.t_atoms, ptr %15, i32 0, i32 4
  %17 = load ptr, ptr %16, align 8, !tbaa !108
  call void @_ZL14gmx_sfree_implIPPcEvPKcS3_iPT_(ptr noundef @.str.10, ptr noundef @.str.6, i32 noundef 242, ptr noundef %17)
  %18 = load ptr, ptr %2, align 8, !tbaa !93
  %19 = getelementptr inbounds nuw %struct.t_atoms, ptr %18, i32 0, i32 7
  %20 = load ptr, ptr %19, align 8, !tbaa !109
  call void @_ZL14gmx_sfree_implI9t_pdbinfoEvPKcS2_iPT_(ptr noundef @.str.11, ptr noundef @.str.6, i32 noundef 243, ptr noundef %20)
  %21 = load ptr, ptr %2, align 8, !tbaa !93
  call void @_Z9init_atomP7t_atoms(ptr noundef %21)
  ret void
}