; Function Attrs: mustprogress uwtable
define void @_Z9done_atomP7t_atoms(ptr noundef captures(none) initializes((0, 4), (40, 44), (64, 69)) %0) local_unnamed_addr #1 {
  %2 = getelementptr inbounds nuw i8, ptr %0, i64 8
  %3 = load ptr, ptr %2, align 8, !tbaa !52
  tail call void @_Z9save_freePKcS0_iPv(ptr noundef nonnull @.str.5, ptr noundef nonnull @.str.6, i32 noundef 238, ptr noundef %3)
  %4 = getelementptr inbounds nuw i8, ptr %0, i64 48
  %5 = load ptr, ptr %4, align 8, !tbaa !53
  tail call void @_Z9save_freePKcS0_iPv(ptr noundef nonnull @.str.7, ptr noundef nonnull @.str.6, i32 noundef 239, ptr noundef %5)
  %6 = getelementptr inbounds nuw i8, ptr %0, i64 16
  %7 = load ptr, ptr %6, align 8, !tbaa !54
  tail call void @_Z9save_freePKcS0_iPv(ptr noundef nonnull @.str.8, ptr noundef nonnull @.str.6, i32 noundef 240, ptr noundef %7)
  %8 = getelementptr inbounds nuw i8, ptr %0, i64 24
  %9 = load ptr, ptr %8, align 8, !tbaa !55
  tail call void @_Z9save_freePKcS0_iPv(ptr noundef nonnull @.str.9, ptr noundef nonnull @.str.6, i32 noundef 241, ptr noundef %9)
  %10 = getelementptr inbounds nuw i8, ptr %0, i64 32
  %11 = load ptr, ptr %10, align 8, !tbaa !56
  tail call void @_Z9save_freePKcS0_iPv(ptr noundef nonnull @.str.10, ptr noundef nonnull @.str.6, i32 noundef 242, ptr noundef %11)
  %12 = getelementptr inbounds nuw i8, ptr %0, i64 56
  %13 = load ptr, ptr %12, align 8, !tbaa !57
  tail call void @_Z9save_freePKcS0_iPv(ptr noundef nonnull @.str.11, ptr noundef nonnull @.str.6, i32 noundef 243, ptr noundef %13)
  store i32 0, ptr %0, align 8, !tbaa !44
  tail call void @llvm.memset.p0.i64(ptr noundef nonnull align 8 dereferenceable(36) %2, i8 0, i64 36, i1 false)
  tail call void @llvm.memset.p0.i64(ptr noundef nonnull align 8 dereferenceable(21) %4, i8 0, i64 21, i1 false)
  ret void
}